; Function Attrs: mustprogress uwtable
define void @_ZN6casadi8Sparsity7tripletExxRKSt6vectorIxSaIxEES5_(ptr dead_on_unwind noalias writable sret(%"class.casadi::Sparsity") align 8 %0, i64 noundef %1, i64 noundef %2, ptr nocapture noundef nonnull readonly align 8 dereferenceable(24) %3, ptr nocapture noundef nonnull readonly align 8 dereferenceable(24) %4) local_unnamed_addr #3 align 2 personality ptr @__gxx_personality_v0 {
  %6 = alloca %"class.std::vector.3", align 8
  call void @llvm.memset.p0.i64(ptr noundef nonnull align 8 dereferenceable(24) %6, i8 0, i64 24, i1 false)
  invoke void @_ZN6casadi8Sparsity7tripletExxRKSt6vectorIxSaIxEES5_RS3_b(ptr dead_on_unwind writable sret(%"class.casadi::Sparsity") align 8 %0, i64 noundef %1, i64 noundef %2, ptr noundef nonnull align 8 dereferenceable(24) %3, ptr noundef nonnull align 8 dereferenceable(24) %4, ptr noundef nonnull align 8 dereferenceable(24) %6, i1 noundef zeroext false)
          to label %7 unwind label %10

7:                                                ; preds = %5
  %8 = load ptr, ptr %6, align 8
  %.not.i.i.i = icmp eq ptr %8, null
  br i1 %.not.i.i.i, label %_ZNSt6vectorIxSaIxEED2Ev.exit, label %9

9:                                                ; preds = %7
  call void @_ZdlPv(ptr noundef nonnull %8) #26
  br label %_ZNSt6vectorIxSaIxEED2Ev.exit

_ZNSt6vectorIxSaIxEED2Ev.exit:                    ; preds = %7, %9
  ret void

10:                                               ; preds = %5
  %11 = landingpad { ptr, i32 }
          cleanup
  %12 = load ptr, ptr %6, align 8
  %.not.i.i.i5 = icmp eq ptr %12, null
  br i1 %.not.i.i.i5, label %_ZNSt6vectorIxSaIxEED2Ev.exit6, label %13

13:                                               ; preds = %10
  call void @_ZdlPv(ptr noundef nonnull %12) #26
  br label %_ZNSt6vectorIxSaIxEED2Ev.exit6

_ZNSt6vectorIxSaIxEED2Ev.exit6:                   ; preds = %10, %13
  resume { ptr, i32 } %11
}